; ModuleID = '15/661.c'
source_filename = "15/661.c"
target datalayout = "e-m:e-p270:32:32-p271:32:32-p272:64:64-i64:64-f80:128-n8:16:32:64-S128"
target triple = "x86_64-pc-linux-gnu"

@.str = private unnamed_addr constant [3 x i8] c"%d\00", align 1
@.str.1 = private unnamed_addr constant [4 x i8] c"%d\0A\00", align 1

; Function Attrs: noinline nounwind uwtable
define dso_local i32 @main() #0 {
  %1 = alloca i32, align 4
  %2 = alloca i32, align 4
  %3 = alloca i32, align 4
  %4 = alloca i32, align 4
  %5 = alloca i32, align 4
  %6 = alloca i32, align 4
  %7 = alloca i32, align 4
  %8 = alloca i32, align 4
  %9 = alloca i32, align 4
  %10 = alloca i32, align 4
  store i32 0, i32* %1, align 4
  store i32 0, i32* %5, align 4
  %11 = call i32 (i8*, ...) @__isoc99_scanf(i8* getelementptr inbounds ([3 x i8], [3 x i8]* @.str, i64 0, i64 0), i32* %2)
  store i32 1, i32* %3, align 4
  br label %12

12:                                               ; preds = %49, %0
  %13 = load i32, i32* %3, align 4
  %14 = load i32, i32* %2, align 4
  %15 = load i32, i32* %2, align 4
  %16 = mul nsw i32 %14, %15
  %17 = icmp sle i32 %13, %16
  br i1 %17, label %18, label %52

18:                                               ; preds = %12
  %19 = call i32 (i8*, ...) @__isoc99_scanf(i8* getelementptr inbounds ([3 x i8], [3 x i8]* @.str, i64 0, i64 0), i32* %4)
  %20 = load i32, i32* %5, align 4
  %21 = icmp eq i32 %20, 0
  br i1 %21, label %22, label %33

22:                                               ; preds = %18
  %23 = load i32, i32* %4, align 4
  %24 = icmp eq i32 %23, 0
  br i1 %24, label %25, label %33

25:                                               ; preds = %22
  store i32 1, i32* %5, align 4
  %26 = load i32, i32* %3, align 4
  %27 = sub nsw i32 %26, 1
  %28 = load i32, i32* %2, align 4
  %29 = sdiv i32 %27, %28
  store i32 %29, i32* %7, align 4
  %30 = load i32, i32* %3, align 4
  %31 = load i32, i32* %2, align 4
  %32 = srem i32 %30, %31
  store i32 %32, i32* %8, align 4
  br label %48

33:                                               ; preds = %22, %18
  %34 = load i32, i32* %5, align 4
  %35 = icmp eq i32 %34, 1
  br i1 %35, label %36, label %47

36:                                               ; preds = %33
  %37 = load i32, i32* %4, align 4
  %38 = icmp eq i32 %37, 0
  br i1 %38, label %39, label %47

39:                                               ; preds = %36
  %40 = load i32, i32* %3, align 4
  %41 = sub nsw i32 %40, 1
  %42 = load i32, i32* %2, align 4
  %43 = sdiv i32 %41, %42
  store i32 %43, i32* %9, align 4
  %44 = load i32, i32* %3, align 4
  %45 = load i32, i32* %2, align 4
  %46 = srem i32 %44, %45
  store i32 %46, i32* %10, align 4
  br label %47

47:                                               ; preds = %39, %36, %33
  br label %48

48:                                               ; preds = %47, %25
  br label %49

49:                                               ; preds = %48
  %50 = load i32, i32* %3, align 4
  %51 = add nsw i32 %50, 1
  store i32 %51, i32* %3, align 4
  br label %12

52:                                               ; preds = %12
  %53 = load i32, i32* %9, align 4
  %54 = load i32, i32* %7, align 4
  %55 = sub nsw i32 %53, %54
  %56 = sub nsw i32 %55, 1
  %57 = load i32, i32* %10, align 4
  %58 = load i32, i32* %8, align 4
  %59 = sub nsw i32 %57, %58
  %60 = sub nsw i32 %59, 1
  %61 = mul nsw i32 %56, %60
  store i32 %61, i32* %6, align 4
  %62 = load i32, i32* %6, align 4
  %63 = call i32 (i8*, ...) @printf(i8* getelementptr inbounds ([4 x i8], [4 x i8]* @.str.1, i64 0, i64 0), i32 %62)
  ret i32 0
}

declare dso_local i32 @__isoc99_scanf(i8*, ...) #1

declare dso_local i32 @printf(i8*, ...) #1


!llvm.module.flags = !{!0}
!llvm.ident = !{!1}

!0 = !{i32 1, !"wchar_size", i32 4}
!1 = !{!"clang version 10.0.0-4ubuntu1 "}
